target datalayout = "e-m:e-p270:32:32-p271:32:32-p272:64:64-i64:64-i128:128-f80:128-n8:16:32:64-S128"
target triple = "x86_64-pc-linux-gnu"

%struct.AVThreadMessageQueue = type { ptr, %union.pthread_mutex_t, %union.pthread_cond_t, %union.pthread_cond_t, i32, i32, i32, ptr }
%union.pthread_mutex_t = type { %struct.__pthread_mutex_s }
%struct.__pthread_mutex_s = type { i32, i32, i32, i32, i32, i16, i16, %struct.__pthread_internal_list }
%struct.__pthread_internal_list = type { ptr, ptr }
%union.pthread_cond_t = type { %struct.__pthread_cond_s }
%struct.__pthread_cond_s = type { %union.__atomic_wide_counter, %union.__atomic_wide_counter, [2 x i32], [2 x i32], i32, i32, [2 x i32] }
%union.__atomic_wide_counter = type { i64 }

; Function Attrs: nounwind uwtable
define void @av_thread_message_queue_set_err_recv(ptr noundef %0, i32 noundef %1) #0 {
  %3 = alloca ptr, align 8
  %4 = alloca i32, align 4
  store ptr %0, ptr %3, align 8, !tbaa !12
  store i32 %1, ptr %4, align 4, !tbaa !10
  %5 = load ptr, ptr %3, align 8, !tbaa !12
  %6 = getelementptr inbounds nuw %struct.AVThreadMessageQueue, ptr %5, i32 0, i32 1
  %7 = call i32 @pthread_mutex_lock(ptr noundef %6) #4
  %8 = load i32, ptr %4, align 4, !tbaa !10
  %9 = load ptr, ptr %3, align 8, !tbaa !12
  %10 = getelementptr inbounds nuw %struct.AVThreadMessageQueue, ptr %9, i32 0, i32 5
  store i32 %8, ptr %10, align 4, !tbaa !25
  %11 = load ptr, ptr %3, align 8, !tbaa !12
  %12 = getelementptr inbounds nuw %struct.AVThreadMessageQueue, ptr %11, i32 0, i32 2
  %13 = call i32 @pthread_cond_broadcast(ptr noundef %12) #4
  %14 = load ptr, ptr %3, align 8, !tbaa !12
  %15 = getelementptr inbounds nuw %struct.AVThreadMessageQueue, ptr %14, i32 0, i32 1
  %16 = call i32 @pthread_mutex_unlock(ptr noundef %15) #4
  ret void
}