; Function Attrs: nounwind uwtable
define void @av_thread_message_queue_set_err_recv(ptr noundef %0, i32 noundef %1) local_unnamed_addr #0 {
  %3 = getelementptr inbounds nuw i8, ptr %0, i64 8
  %4 = tail call i32 @pthread_mutex_lock(ptr noundef nonnull %3) #5
  %5 = getelementptr inbounds nuw i8, ptr %0, i64 148
  store i32 %1, ptr %5, align 4, !tbaa !20
  %6 = getelementptr inbounds nuw i8, ptr %0, i64 48
  %7 = tail call i32 @pthread_cond_broadcast(ptr noundef nonnull %6) #5
  %8 = tail call i32 @pthread_mutex_unlock(ptr noundef nonnull %3) #5
  ret void
}